target datalayout = "e-m:e-p270:32:32-p271:32:32-p272:64:64-i64:64-i128:128-f80:128-n8:16:32:64-S128"
target triple = "x86_64-pc-linux-gnu"

%struct.glob_args = type { ptr, ptr, ptr, i64, i64, ptr }

; Function Attrs: nounwind sspstrong uwtable
define internal i64 @glob_func_caller(i64 noundef %0) #0 {
  %2 = alloca i64, align 8
  %3 = alloca ptr, align 8
  store i64 %0, ptr %2, align 8, !tbaa !7
  call void @llvm.lifetime.start.p0(i64 8, ptr %3) #26
  %4 = load i64, ptr %2, align 8, !tbaa !7
  %5 = inttoptr i64 %4 to ptr
  store ptr %5, ptr %3, align 8, !tbaa !168
  %6 = load ptr, ptr %3, align 8, !tbaa !168
  %7 = getelementptr inbounds nuw %struct.glob_args, ptr %6, i32 0, i32 0
  %8 = load ptr, ptr %7, align 8, !tbaa !35
  %9 = load ptr, ptr %3, align 8, !tbaa !168
  %10 = getelementptr inbounds nuw %struct.glob_args, ptr %9, i32 0, i32 1
  %11 = load ptr, ptr %10, align 8, !tbaa !170
  %12 = load ptr, ptr %3, align 8, !tbaa !168
  %13 = getelementptr inbounds nuw %struct.glob_args, ptr %12, i32 0, i32 4
  %14 = load i64, ptr %13, align 8, !tbaa !37
  %15 = load ptr, ptr %3, align 8, !tbaa !168
  %16 = getelementptr inbounds nuw %struct.glob_args, ptr %15, i32 0, i32 5
  %17 = load ptr, ptr %16, align 8, !tbaa !38
  call void %8(ptr noundef %11, i64 noundef %14, ptr noundef %17)
  call void @llvm.lifetime.end.p0(i64 8, ptr %3) #26
  ret i64 4
}