; Function Attrs: nounwind sspstrong uwtable
define internal noundef i64 @glob_func_caller(i64 noundef %0) #0 {
  %2 = inttoptr i64 %0 to ptr
  %3 = load ptr, ptr %2, align 8, !tbaa !35
  %4 = getelementptr inbounds nuw i8, ptr %2, i64 8
  %5 = load ptr, ptr %4, align 8, !tbaa !184
  %6 = getelementptr inbounds nuw i8, ptr %2, i64 32
  %7 = load i64, ptr %6, align 8, !tbaa !38
  %8 = getelementptr inbounds nuw i8, ptr %2, i64 40
  %9 = load ptr, ptr %8, align 8, !tbaa !39
  tail call void %3(ptr noundef %5, i64 noundef %7, ptr noundef %9) #22
  ret i64 4
}